target datalayout = "e-m:e-p270:32:32-p271:32:32-p272:64:64-i64:64-i128:128-f80:128-n8:16:32:64-S128"
target triple = "x86_64-pc-linux-gnu"

%struct.mbedtls_ssl_context = type { ptr, i32, i32, i32, i32, i32, ptr, ptr, ptr, ptr, ptr, ptr, ptr, ptr, ptr, ptr, ptr, ptr, ptr, ptr, ptr, ptr, ptr, ptr, ptr, ptr, ptr, ptr, ptr, ptr, ptr, ptr, ptr, i32, i64, i64, i16, i64, i64, i64, i64, i32, i32, i8, i8, i32, i8, ptr, ptr, ptr, ptr, ptr, ptr, ptr, i32, i64, i64, [8 x i8], i16, ptr, ptr, ptr, i64, i32, i64, [12 x i8], [12 x i8], [32 x i8], i8, i8, ptr, ptr, %union.mbedtls_ssl_user_data_t }
%union.mbedtls_ssl_user_data_t = type { i64 }
%struct.mbedtls_ssl_handshake_params = type { i8, i8, i8, i8, i8, i32, i8, i8, i8, i8, ptr, ptr, ptr, ptr, ptr, i8, i8, i8, i8, i16, i16, [20 x i16], ptr, ptr, %struct.mbedtls_dhm_context, %struct.mbedtls_ecdh_context, i16, i64, i32, i8, [1024 x i8], i64, ptr, ptr, i64, i16, ptr, ptr, ptr, ptr, %struct.anon, ptr, i16, i8, i32, i32, i32, ptr, ptr, ptr, i32, ptr, [8 x i8], i8, [32 x i8], i8, i16, %struct.mbedtls_md_context_t, %struct.mbedtls_md_context_t, i16, i8, %union.anon.1, [64 x i8], [1076 x i8], i64, i32, i32, i8, ptr, ptr, %union.anon.4, %struct.mbedtls_ssl_tls13_handshake_secrets, ptr, i64, ptr }
%struct.mbedtls_dhm_context = type { %struct.mbedtls_mpi, %struct.mbedtls_mpi, %struct.mbedtls_mpi, %struct.mbedtls_mpi, %struct.mbedtls_mpi, %struct.mbedtls_mpi, %struct.mbedtls_mpi, %struct.mbedtls_mpi, %struct.mbedtls_mpi, %struct.mbedtls_mpi }
%struct.mbedtls_mpi = type { ptr, i16, i16 }
%struct.mbedtls_ecdh_context = type { i8, i32, i32, %union.anon }
%union.anon = type { %struct.mbedtls_ecdh_context_mbed }
%struct.mbedtls_ecdh_context_mbed = type { %struct.mbedtls_ecp_group, %struct.mbedtls_mpi, %struct.mbedtls_ecp_point, %struct.mbedtls_ecp_point, %struct.mbedtls_mpi }
%struct.mbedtls_ecp_group = type { i32, %struct.mbedtls_mpi, %struct.mbedtls_mpi, %struct.mbedtls_mpi, %struct.mbedtls_ecp_point, %struct.mbedtls_mpi, i64, i64, i32, ptr, ptr, ptr, ptr, ptr, i64 }
%struct.mbedtls_ecp_point = type { %struct.mbedtls_mpi, %struct.mbedtls_mpi, %struct.mbedtls_mpi }
%struct.anon = type { i64, i8, [4 x %struct.mbedtls_ssl_hs_buffer], %struct.anon.0 }
%struct.mbedtls_ssl_hs_buffer = type { i8, ptr, i64 }
%struct.anon.0 = type { ptr, i64, i32 }
%struct.mbedtls_md_context_t = type { ptr, ptr, ptr }
%union.anon.1 = type { %struct.anon.2 }
%struct.anon.2 = type { i8, [64 x i8], i64 }
%union.anon.4 = type { [64 x i8] }
%struct.mbedtls_ssl_tls13_handshake_secrets = type { [64 x i8], [64 x i8] }
%struct.mbedtls_ssl_config = type { i32, i32, i8, i8, i8, i8, i8, i8, i8, i8, i8, i8, i16, i8, i8, i8, ptr, i32, ptr, ptr, ptr, ptr, ptr, ptr, ptr, ptr, ptr, ptr, ptr, ptr, ptr, ptr, ptr, ptr, ptr, ptr, ptr, i64, ptr, ptr, ptr, ptr, ptr, ptr, ptr, ptr, %struct.mbedtls_mpi, %struct.mbedtls_mpi, ptr, i64, ptr, i64, ptr, i32, i32, i32, i32, [8 x i8], i32, i32, %union.mbedtls_ssl_user_data_t, ptr, ptr }
%struct.anon.3 = type { i8, [64 x i8], i64 }

@.str = private unnamed_addr constant [131 x i8] c"generated/home/dtcxzyw/WorkSpace/Projects/compilers/llvm-opt-benchmark/bench/lief/bench_build/mbed_src/library/ssl_tls13_generic.c\00", align 1
@.str.2 = private unnamed_addr constant [24 x i8] c"mbedtls_ssl_read_record\00", align 1
@.str.3 = private unnamed_addr constant [38 x i8] c"Receive unexpected handshake message.\00", align 1
@.str.15 = private unnamed_addr constant [26 x i8] c"=> parse finished message\00", align 1
@.str.16 = private unnamed_addr constant [26 x i8] c"<= parse finished message\00", align 1
@.str.56 = private unnamed_addr constant [40 x i8] c"mbedtls_ssl_tls13_calculate_verify_data\00", align 1
@.str.57 = private unnamed_addr constant [21 x i8] c"bad finished message\00", align 1
@.str.58 = private unnamed_addr constant [29 x i8] c"verify_data (self-computed):\00", align 1
@.str.59 = private unnamed_addr constant [32 x i8] c"verify_data (received message):\00", align 1

; Function Attrs: nounwind uwtable
define internal i32 @ssl_tls13_parse_finished_message(ptr noundef %0, ptr noundef %1, ptr noundef %2) #0 {
  %4 = alloca i32, align 4
  %5 = alloca ptr, align 8
  %6 = alloca ptr, align 8
  %7 = alloca ptr, align 8
  %8 = alloca ptr, align 8
  %9 = alloca i64, align 8
  %10 = alloca i32, align 4
  store ptr %0, ptr %5, align 8, !tbaa !3
  store ptr %1, ptr %6, align 8, !tbaa !26
  store ptr %2, ptr %7, align 8, !tbaa !26
  call void @llvm.lifetime.start.p0(i64 8, ptr %8) #10
  %11 = load ptr, ptr %5, align 8, !tbaa !3
  %12 = getelementptr inbounds nuw %struct.mbedtls_ssl_context, ptr %11, i32 0, i32 16
  %13 = load ptr, ptr %12, align 8, !tbaa !33
  %14 = getelementptr inbounds nuw %struct.mbedtls_ssl_handshake_params, ptr %13, i32 0, i32 61
  %15 = getelementptr inbounds nuw %struct.anon.3, ptr %14, i32 0, i32 1
  %16 = getelementptr inbounds [64 x i8], ptr %15, i64 0, i64 0
  store ptr %16, ptr %8, align 8, !tbaa !26
  call void @llvm.lifetime.start.p0(i64 8, ptr %9) #10
  %17 = load ptr, ptr %5, align 8, !tbaa !3
  %18 = getelementptr inbounds nuw %struct.mbedtls_ssl_context, ptr %17, i32 0, i32 16
  %19 = load ptr, ptr %18, align 8, !tbaa !33
  %20 = getelementptr inbounds nuw %struct.mbedtls_ssl_handshake_params, ptr %19, i32 0, i32 61
  %21 = getelementptr inbounds nuw %struct.anon.3, ptr %20, i32 0, i32 2
  %22 = load i64, ptr %21, align 8, !tbaa !25
  store i64 %22, ptr %9, align 8, !tbaa !28
  %23 = load ptr, ptr %7, align 8, !tbaa !26
  %24 = load ptr, ptr %6, align 8, !tbaa !26
  %25 = ptrtoint ptr %23 to i64
  %26 = ptrtoint ptr %24 to i64
  %27 = sub i64 %25, %26
  %28 = load i64, ptr %9, align 8, !tbaa !28
  %29 = icmp ne i64 %27, %28
  br i1 %29, label %30, label %33

30:                                               ; preds = %3
  %31 = load ptr, ptr %5, align 8, !tbaa !3
  call void (ptr, i32, ptr, i32, ptr, ...) @mbedtls_debug_print_msg(ptr noundef %31, i32 noundef 1, ptr noundef @.str, i32 noundef 1099, ptr noundef @.str.57)
  %32 = load ptr, ptr %5, align 8, !tbaa !3
  call void @mbedtls_ssl_pend_fatal_alert(ptr noundef %32, i8 noundef zeroext 50, i32 noundef -29440)
  store i32 -29440, ptr %4, align 4
  store i32 1, ptr %10, align 4
  br label %49

33:                                               ; preds = %3
  %34 = load ptr, ptr %5, align 8, !tbaa !3
  %35 = load ptr, ptr %8, align 8, !tbaa !26
  %36 = load i64, ptr %9, align 8, !tbaa !28
  call void @mbedtls_debug_print_buf(ptr noundef %34, i32 noundef 4, ptr noundef @.str, i32 noundef 1108, ptr noundef @.str.58, ptr noundef %35, i64 noundef %36)
  %37 = load ptr, ptr %5, align 8, !tbaa !3
  %38 = load ptr, ptr %6, align 8, !tbaa !26
  %39 = load i64, ptr %9, align 8, !tbaa !28
  call void @mbedtls_debug_print_buf(ptr noundef %37, i32 noundef 4, ptr noundef @.str, i32 noundef 1110, ptr noundef @.str.59, ptr noundef %38, i64 noundef %39)
  %40 = load ptr, ptr %6, align 8, !tbaa !26
  %41 = load ptr, ptr %8, align 8, !tbaa !26
  %42 = load i64, ptr %9, align 8, !tbaa !28
  %43 = call i32 @mbedtls_ct_memcmp(ptr noundef %40, ptr noundef %41, i64 noundef %42)
  %44 = icmp ne i32 %43, 0
  br i1 %44, label %45, label %48

45:                                               ; preds = %33
  %46 = load ptr, ptr %5, align 8, !tbaa !3
  call void (ptr, i32, ptr, i32, ptr, ...) @mbedtls_debug_print_msg(ptr noundef %46, i32 noundef 1, ptr noundef @.str, i32 noundef 1116, ptr noundef @.str.57)
  %47 = load ptr, ptr %5, align 8, !tbaa !3
  call void @mbedtls_ssl_pend_fatal_alert(ptr noundef %47, i8 noundef zeroext 51, i32 noundef -28160)
  store i32 -28160, ptr %4, align 4
  store i32 1, ptr %10, align 4
  br label %49

48:                                               ; preds = %33
  store i32 0, ptr %4, align 4
  store i32 1, ptr %10, align 4
  br label %49

49:                                               ; preds = %48, %45, %30
  call void @llvm.lifetime.end.p0(i64 8, ptr %9) #10
  call void @llvm.lifetime.end.p0(i64 8, ptr %8) #10
  %50 = load i32, ptr %4, align 4
  ret i32 %50
}

; Function Attrs: nounwind uwtable
define internal i32 @ssl_tls13_preprocess_finished_message(ptr noundef %0) #0 {
  %2 = alloca i32, align 4
  %3 = alloca ptr, align 8
  %4 = alloca i32, align 4
  %5 = alloca i32, align 4
  store ptr %0, ptr %3, align 8, !tbaa !3
  call void @llvm.lifetime.start.p0(i64 4, ptr %4) #10
  %6 = load ptr, ptr %3, align 8, !tbaa !3
  %7 = load ptr, ptr %3, align 8, !tbaa !3
  %8 = getelementptr inbounds nuw %struct.mbedtls_ssl_context, ptr %7, i32 0, i32 16
  %9 = load ptr, ptr %8, align 8, !tbaa !33
  %10 = getelementptr inbounds nuw %struct.mbedtls_ssl_handshake_params, ptr %9, i32 0, i32 61
  %11 = getelementptr inbounds nuw %struct.anon.3, ptr %10, i32 0, i32 1
  %12 = getelementptr inbounds [64 x i8], ptr %11, i64 0, i64 0
  %13 = load ptr, ptr %3, align 8, !tbaa !3
  %14 = getelementptr inbounds nuw %struct.mbedtls_ssl_context, ptr %13, i32 0, i32 16
  %15 = load ptr, ptr %14, align 8, !tbaa !33
  %16 = getelementptr inbounds nuw %struct.mbedtls_ssl_handshake_params, ptr %15, i32 0, i32 61
  %17 = getelementptr inbounds nuw %struct.anon.3, ptr %16, i32 0, i32 2
  %18 = load ptr, ptr %3, align 8, !tbaa !3
  %19 = getelementptr inbounds nuw %struct.mbedtls_ssl_context, ptr %18, i32 0, i32 0
  %20 = load ptr, ptr %19, align 8, !tbaa !52
  %21 = getelementptr inbounds nuw %struct.mbedtls_ssl_config, ptr %20, i32 0, i32 2
  %22 = load i8, ptr %21, align 8, !tbaa !53
  %23 = zext i8 %22 to i32
  %24 = icmp eq i32 %23, 0
  %25 = select i1 %24, i32 1, i32 0
  %26 = call i32 @mbedtls_ssl_tls13_calculate_verify_data(ptr noundef %6, ptr noundef %12, i64 noundef 64, ptr noundef %17, i32 noundef %25)
  store i32 %26, ptr %4, align 4, !tbaa !8
  %27 = load i32, ptr %4, align 4, !tbaa !8
  %28 = icmp ne i32 %27, 0
  br i1 %28, label %29, label %33

29:                                               ; preds = %1
  %30 = load ptr, ptr %3, align 8, !tbaa !3
  %31 = load i32, ptr %4, align 4, !tbaa !8
  call void @mbedtls_debug_print_ret(ptr noundef %30, i32 noundef 1, ptr noundef @.str, i32 noundef 1076, ptr noundef @.str.56, i32 noundef %31)
  %32 = load i32, ptr %4, align 4, !tbaa !8
  store i32 %32, ptr %2, align 4
  store i32 1, ptr %5, align 4
  br label %34

33:                                               ; preds = %1
  store i32 0, ptr %2, align 4
  store i32 1, ptr %5, align 4
  br label %34

34:                                               ; preds = %33, %29
  call void @llvm.lifetime.end.p0(i64 4, ptr %4) #10
  %35 = load i32, ptr %2, align 4
  ret i32 %35
}

; Function Attrs: nounwind uwtable
define hidden i32 @mbedtls_ssl_tls13_fetch_handshake_msg(ptr noundef %0, i32 noundef %1, ptr noundef %2, ptr noundef %3) #0 {
  %5 = alloca ptr, align 8
  %6 = alloca i32, align 4
  %7 = alloca ptr, align 8
  %8 = alloca ptr, align 8
  %9 = alloca i32, align 4
  store ptr %0, ptr %5, align 8, !tbaa !3
  store i32 %1, ptr %6, align 4, !tbaa !8
  store ptr %2, ptr %7, align 8, !tbaa !10
  store ptr %3, ptr %8, align 8, !tbaa !13
  call void @llvm.lifetime.start.p0(i64 4, ptr %9) #10
  %10 = load ptr, ptr %5, align 8, !tbaa !3
  %11 = call i32 @mbedtls_ssl_read_record(ptr noundef %10, i32 noundef 0)
  store i32 %11, ptr %9, align 4, !tbaa !8
  %12 = icmp ne i32 %11, 0
  br i1 %12, label %13, label %16

13:                                               ; preds = %4
  %14 = load ptr, ptr %5, align 8, !tbaa !3
  %15 = load i32, ptr %9, align 4, !tbaa !8
  call void @mbedtls_debug_print_ret(ptr noundef %14, i32 noundef 1, ptr noundef @.str, i32 noundef 65, ptr noundef @.str.2, i32 noundef %15)
  br label %44

16:                                               ; preds = %4
  %17 = load ptr, ptr %5, align 8, !tbaa !3
  %18 = getelementptr inbounds nuw %struct.mbedtls_ssl_context, ptr %17, i32 0, i32 33
  %19 = load i32, ptr %18, align 8, !tbaa !15
  %20 = icmp ne i32 %19, 22
  br i1 %20, label %30, label %21

21:                                               ; preds = %16
  %22 = load ptr, ptr %5, align 8, !tbaa !3
  %23 = getelementptr inbounds nuw %struct.mbedtls_ssl_context, ptr %22, i32 0, i32 31
  %24 = load ptr, ptr %23, align 8, !tbaa !24
  %25 = getelementptr inbounds i8, ptr %24, i64 0
  %26 = load i8, ptr %25, align 1, !tbaa !25
  %27 = zext i8 %26 to i32
  %28 = load i32, ptr %6, align 4, !tbaa !8
  %29 = icmp ne i32 %27, %28
  br i1 %29, label %30, label %33

30:                                               ; preds = %21, %16
  %31 = load ptr, ptr %5, align 8, !tbaa !3
  call void (ptr, i32, ptr, i32, ptr, ...) @mbedtls_debug_print_msg(ptr noundef %31, i32 noundef 1, ptr noundef @.str, i32 noundef 71, ptr noundef @.str.3)
  %32 = load ptr, ptr %5, align 8, !tbaa !3
  call void @mbedtls_ssl_pend_fatal_alert(ptr noundef %32, i8 noundef zeroext 10, i32 noundef -30464)
  store i32 -30464, ptr %9, align 4, !tbaa !8
  br label %44

33:                                               ; preds = %21
  %34 = load ptr, ptr %5, align 8, !tbaa !3
  %35 = getelementptr inbounds nuw %struct.mbedtls_ssl_context, ptr %34, i32 0, i32 31
  %36 = load ptr, ptr %35, align 8, !tbaa !24
  %37 = getelementptr inbounds i8, ptr %36, i64 4
  %38 = load ptr, ptr %7, align 8, !tbaa !10
  store ptr %37, ptr %38, align 8, !tbaa !26
  %39 = load ptr, ptr %5, align 8, !tbaa !3
  %40 = getelementptr inbounds nuw %struct.mbedtls_ssl_context, ptr %39, i32 0, i32 40
  %41 = load i64, ptr %40, align 8, !tbaa !27
  %42 = sub i64 %41, 4
  %43 = load ptr, ptr %8, align 8, !tbaa !13
  store i64 %42, ptr %43, align 8, !tbaa !28
  br label %44

44:                                               ; preds = %33, %30, %13
  %45 = load i32, ptr %9, align 4, !tbaa !8
  call void @llvm.lifetime.end.p0(i64 4, ptr %9) #10
  ret i32 %45
}

; Function Attrs: nounwind uwtable
define hidden i32 @mbedtls_ssl_tls13_process_finished_message(ptr noundef %0) #0 {
  %2 = alloca ptr, align 8
  %3 = alloca i32, align 4
  %4 = alloca ptr, align 8
  %5 = alloca i64, align 8
  store ptr %0, ptr %2, align 8, !tbaa !3
  call void @llvm.lifetime.start.p0(i64 4, ptr %3) #10
  store i32 -110, ptr %3, align 4, !tbaa !8
  call void @llvm.lifetime.start.p0(i64 8, ptr %4) #10
  call void @llvm.lifetime.start.p0(i64 8, ptr %5) #10
  %6 = load ptr, ptr %2, align 8, !tbaa !3
  call void (ptr, i32, ptr, i32, ptr, ...) @mbedtls_debug_print_msg(ptr noundef %6, i32 noundef 2, ptr noundef @.str, i32 noundef 1131, ptr noundef @.str.15)
  br label %7

7:                                                ; preds = %1
  %8 = load ptr, ptr %2, align 8, !tbaa !3
  %9 = call i32 @mbedtls_ssl_tls13_fetch_handshake_msg(ptr noundef %8, i32 noundef 20, ptr noundef %4, ptr noundef %5)
  store i32 %9, ptr %3, align 4, !tbaa !8
  %10 = load i32, ptr %3, align 4, !tbaa !8
  %11 = icmp ne i32 %10, 0
  br i1 %11, label %12, label %13

12:                                               ; preds = %7
  br label %49

13:                                               ; preds = %7
  br label %14

14:                                               ; preds = %13
  br label %15

15:                                               ; preds = %14
  br label %16

16:                                               ; preds = %15
  %17 = load ptr, ptr %2, align 8, !tbaa !3
  %18 = call i32 @ssl_tls13_preprocess_finished_message(ptr noundef %17)
  store i32 %18, ptr %3, align 4, !tbaa !8
  %19 = load i32, ptr %3, align 4, !tbaa !8
  %20 = icmp ne i32 %19, 0
  br i1 %20, label %21, label %22

21:                                               ; preds = %16
  br label %49

22:                                               ; preds = %16
  br label %23

23:                                               ; preds = %22
  br label %24

24:                                               ; preds = %23
  br label %25

25:                                               ; preds = %24
  %26 = load ptr, ptr %2, align 8, !tbaa !3
  %27 = load ptr, ptr %4, align 8, !tbaa !26
  %28 = load ptr, ptr %4, align 8, !tbaa !26
  %29 = load i64, ptr %5, align 8, !tbaa !28
  %30 = getelementptr inbounds nuw i8, ptr %28, i64 %29
  %31 = call i32 @ssl_tls13_parse_finished_message(ptr noundef %26, ptr noundef %27, ptr noundef %30)
  store i32 %31, ptr %3, align 4, !tbaa !8
  %32 = load i32, ptr %3, align 4, !tbaa !8
  %33 = icmp ne i32 %32, 0
  br i1 %33, label %34, label %35

34:                                               ; preds = %25
  br label %49

35:                                               ; preds = %25
  br label %36

36:                                               ; preds = %35
  br label %37

37:                                               ; preds = %36
  br label %38

38:                                               ; preds = %37
  %39 = load ptr, ptr %2, align 8, !tbaa !3
  %40 = load ptr, ptr %4, align 8, !tbaa !26
  %41 = load i64, ptr %5, align 8, !tbaa !28
  %42 = call i32 @mbedtls_ssl_add_hs_msg_to_checksum(ptr noundef %39, i32 noundef 20, ptr noundef %40, i64 noundef %41)
  store i32 %42, ptr %3, align 4, !tbaa !8
  %43 = load i32, ptr %3, align 4, !tbaa !8
  %44 = icmp ne i32 %43, 0
  br i1 %44, label %45, label %46

45:                                               ; preds = %38
  br label %49

46:                                               ; preds = %38
  br label %47

47:                                               ; preds = %46
  br label %48

48:                                               ; preds = %47
  br label %49

49:                                               ; preds = %48, %45, %34, %21, %12
  %50 = load ptr, ptr %2, align 8, !tbaa !3
  call void (ptr, i32, ptr, i32, ptr, ...) @mbedtls_debug_print_msg(ptr noundef %50, i32 noundef 2, ptr noundef @.str, i32 noundef 1147, ptr noundef @.str.16)
  %51 = load i32, ptr %3, align 4, !tbaa !8
  call void @llvm.lifetime.end.p0(i64 8, ptr %5) #10
  call void @llvm.lifetime.end.p0(i64 8, ptr %4) #10
  call void @llvm.lifetime.end.p0(i64 4, ptr %3) #10
  ret i32 %51
}