; Function Attrs: nounwind uwtable
define hidden i32 @mbedtls_ssl_tls13_process_finished_message(ptr noundef %0) local_unnamed_addr #0 {
  tail call void (ptr, i32, ptr, i32, ptr, ...) @mbedtls_debug_print_msg(ptr noundef %0, i32 noundef 2, ptr noundef nonnull @.str, i32 noundef 1131, ptr noundef nonnull @.str.15) #8
  %2 = tail call i32 @mbedtls_ssl_read_record(ptr noundef %0, i32 noundef 0) #8
  %.not.i = icmp eq i32 %2, 0
  br i1 %.not.i, label %4, label %3

3:                                                ; preds = %1
  tail call void @mbedtls_debug_print_ret(ptr noundef %0, i32 noundef 1, ptr noundef nonnull @.str, i32 noundef 65, ptr noundef nonnull @.str.2, i32 noundef %2) #8
  br label %mbedtls_ssl_tls13_fetch_handshake_msg.exit.thread

4:                                                ; preds = %1
  %5 = getelementptr inbounds nuw i8, ptr %0, i64 248
  %6 = load i32, ptr %5, align 8, !tbaa !3
  %.not13.i = icmp eq i32 %6, 22
  br i1 %.not13.i, label %7, label %11

7:                                                ; preds = %4
  %8 = getelementptr inbounds nuw i8, ptr %0, i64 232
  %9 = load ptr, ptr %8, align 8, !tbaa !16
  %10 = load i8, ptr %9, align 1, !tbaa !17
  %.not14.i = icmp eq i8 %10, 20
  br i1 %.not14.i, label %12, label %11

11:                                               ; preds = %7, %4
  tail call void (ptr, i32, ptr, i32, ptr, ...) @mbedtls_debug_print_msg(ptr noundef nonnull %0, i32 noundef 1, ptr noundef nonnull @.str, i32 noundef 71, ptr noundef nonnull @.str.3) #8
  tail call void @mbedtls_ssl_pend_fatal_alert(ptr noundef nonnull %0, i8 noundef zeroext 10, i32 noundef -30464) #8
  br label %mbedtls_ssl_tls13_fetch_handshake_msg.exit.thread

12:                                               ; preds = %7
  %13 = getelementptr inbounds nuw i8, ptr %9, i64 4
  %14 = getelementptr inbounds nuw i8, ptr %0, i64 304
  %15 = load i64, ptr %14, align 8, !tbaa !19
  %16 = add i64 %15, -4
  %17 = getelementptr inbounds nuw i8, ptr %0, i64 112
  %18 = load ptr, ptr %17, align 8, !tbaa !23
  %19 = getelementptr inbounds nuw i8, ptr %18, i64 2041
  %20 = getelementptr inbounds nuw i8, ptr %18, i64 2112
  %21 = load ptr, ptr %0, align 8, !tbaa !43
  %22 = getelementptr inbounds nuw i8, ptr %21, i64 8
  %23 = load i8, ptr %22, align 8, !tbaa !44
  %24 = icmp eq i8 %23, 0
  %25 = zext i1 %24 to i32
  %26 = tail call i32 @mbedtls_ssl_tls13_calculate_verify_data(ptr noundef nonnull %0, ptr noundef nonnull %19, i64 noundef 64, ptr noundef nonnull %20, i32 noundef %25) #8
  %.not.i14 = icmp eq i32 %26, 0
  br i1 %.not.i14, label %27, label %ssl_tls13_preprocess_finished_message.exit

ssl_tls13_preprocess_finished_message.exit:       ; preds = %12
  tail call void @mbedtls_debug_print_ret(ptr noundef nonnull %0, i32 noundef 1, ptr noundef nonnull @.str, i32 noundef 1076, ptr noundef nonnull @.str.56, i32 noundef %26) #8
  br label %mbedtls_ssl_tls13_fetch_handshake_msg.exit.thread

27:                                               ; preds = %12
  %28 = load ptr, ptr %17, align 8, !tbaa !23
  %29 = getelementptr inbounds nuw i8, ptr %28, i64 2112
  %30 = load i64, ptr %29, align 8, !tbaa !17
  %.not.i15 = icmp eq i64 %16, %30
  br i1 %.not.i15, label %32, label %31

31:                                               ; preds = %27
  tail call void (ptr, i32, ptr, i32, ptr, ...) @mbedtls_debug_print_msg(ptr noundef nonnull %0, i32 noundef 1, ptr noundef nonnull @.str, i32 noundef 1099, ptr noundef nonnull @.str.57) #8
  tail call void @mbedtls_ssl_pend_fatal_alert(ptr noundef nonnull %0, i8 noundef zeroext 50, i32 noundef -29440) #8
  br label %mbedtls_ssl_tls13_fetch_handshake_msg.exit.thread

32:                                               ; preds = %27
  %33 = getelementptr inbounds nuw i8, ptr %28, i64 2041
  tail call void @mbedtls_debug_print_buf(ptr noundef nonnull %0, i32 noundef 4, ptr noundef nonnull @.str, i32 noundef 1108, ptr noundef nonnull @.str.58, ptr noundef nonnull %33, i64 noundef %16) #8
  tail call void @mbedtls_debug_print_buf(ptr noundef nonnull %0, i32 noundef 4, ptr noundef nonnull @.str, i32 noundef 1110, ptr noundef nonnull @.str.59, ptr noundef nonnull %13, i64 noundef %16) #8
  %34 = tail call i32 @mbedtls_ct_memcmp(ptr noundef nonnull %13, ptr noundef nonnull %33, i64 noundef %16) #8
  %.not19.i = icmp eq i32 %34, 0
  br i1 %.not19.i, label %ssl_tls13_parse_finished_message.exit, label %35

35:                                               ; preds = %32
  tail call void (ptr, i32, ptr, i32, ptr, ...) @mbedtls_debug_print_msg(ptr noundef nonnull %0, i32 noundef 1, ptr noundef nonnull @.str, i32 noundef 1116, ptr noundef nonnull @.str.57) #8
  tail call void @mbedtls_ssl_pend_fatal_alert(ptr noundef nonnull %0, i8 noundef zeroext 51, i32 noundef -28160) #8
  br label %mbedtls_ssl_tls13_fetch_handshake_msg.exit.thread

ssl_tls13_parse_finished_message.exit:            ; preds = %32
  %36 = tail call i32 @mbedtls_ssl_add_hs_msg_to_checksum(ptr noundef nonnull %0, i32 noundef 20, ptr noundef nonnull %13, i64 noundef %16) #8
  br label %mbedtls_ssl_tls13_fetch_handshake_msg.exit.thread

mbedtls_ssl_tls13_fetch_handshake_msg.exit.thread: ; preds = %35, %31, %11, %3, %ssl_tls13_preprocess_finished_message.exit, %ssl_tls13_parse_finished_message.exit
  %.0 = phi i32 [ %26, %ssl_tls13_preprocess_finished_message.exit ], [ %36, %ssl_tls13_parse_finished_message.exit ], [ -30464, %11 ], [ %2, %3 ], [ -28160, %35 ], [ -29440, %31 ]
  tail call void (ptr, i32, ptr, i32, ptr, ...) @mbedtls_debug_print_msg(ptr noundef %0, i32 noundef 2, ptr noundef nonnull @.str, i32 noundef 1147, ptr noundef nonnull @.str.16) #8
  ret i32 %.0
}